Certificate:
    Data:
        Version: 3 (0x2)
        Serial Number: 2 (0x2)
        Signature Algorithm: sha256WithRSAEncryption
        Issuer: C=US, ST=California, L=San Francisco, O=Example CA, OU=IT, CN=ca.example
        Validity
            Not Before: Apr 29 22:27:06 2021 GMT
            Not After : Jul 28 22:27:06 2021 GMT
        Subject: C=US, ST=California, L=San Francisco, O=Example Widgets Ltd, OU=IT, CN=NATS Client
        Subject Public Key Info:
            Public Key Algorithm: rsaEncryption
                RSA Public-Key: (4096 bit)
                Modulus:
                    00:a6:48:c5:e0:d0:74:d0:bd:d3:22:6f:a5:19:20:
                    9c:a2:7b:d8:cd:7a:69:1a:5f:8f:61:b6:a3:59:92:
                    90:a6:32:2a:66:31:ff:a5:10:69:ae:6b:b7:5f:d9:
                    f1:00:f4:6f:af:8f:f4:31:24:33:bb:a7:ed:4a:ca:
                    43:c3:d9:69:24:c0:04:85:53:df:e9:63:93:82:65:
                    33:90:c4:3a:3f:ee:7c:f3:67:71:97:21:ac:97:0c:
                    db:b3:ac:89:6f:ee:f7:d2:cb:aa:92:57:99:3d:f0:
                    6f:84:a9:f7:fa:52:b4:53:46:df:8d:95:6a:1c:18:
                    30:f3:df:a2:46:b5:db:ff:f5:ce:1c:52:b8:05:0d:
                    22:f5:40:18:1d:5b:c7:98:7d:eb:58:da:74:b8:05:
                    05:8b:3a:aa:5f:8d:98:dc:7e:5b:fc:eb:b9:44:0a:
                    93:ff:b5:ff:31:8b:2c:cd:cd:29:37:58:4f:bf:ce:
                    ac:0f:b3:bc:c4:89:71:b4:61:a7:f8:00:bd:c2:10:
                    f8:97:3b:ec:e7:b1:00:4a:25:68:f8:2e:00:15:74:
                    bb:7c:0d:eb:c5:2e:87:f2:75:96:07:c4:22:fa:a3:
                    a7:9e:f1:89:e3:d0:54:ae:c1:a0:ed:1f:a6:ed:fc:
                    c8:36:08:97:bb:7f:c4:26:4a:7d:a2:17:86:86:6b:
                    18:4c:48:bf:ec:12:c7:98:19:09:61:8e:2b:cd:2f:
                    ca:ae:a3:21:8a:c8:e4:eb:36:fe:e7:69:32:e0:28:
                    31:0f:b1:a9:ec:d2:ce:87:bc:5c:99:b8:ec:19:d7:
                    03:53:38:1a:95:46:0b:2b:3e:6e:fe:48:70:10:b9:
                    b6:cd:8f:f0:e3:8a:41:ce:cb:9b:96:15:c6:6c:09:
                    bd:9e:ef:9f:50:3b:ea:78:2f:40:a6:0d:1d:f9:98:
                    c5:90:ed:2e:ac:47:44:32:22:d7:2d:de:6d:31:07:
                    c0:ef:94:d5:b7:4d:0d:8a:07:86:02:16:5c:57:c5:
                    d2:ce:d3:57:45:66:0f:bb:b5:f0:89:e6:54:c6:27:
                    01:fa:b4:41:85:92:ed:be:68:59:b2:91:ed:7c:49:
                    68:04:dc:f2:da:70:05:6c:2d:60:79:0c:7f:2b:70:
                    1f:50:0c:e6:99:5d:75:1a:d9:b0:2a:a2:d5:44:69:
                    9d:9a:e0:e7:c4:10:36:4f:e0:04:a8:de:8b:b5:12:
                    9b:d4:3f:33:4c:5d:cb:0d:dc:1e:44:b5:94:13:9b:
                    7a:4c:69:92:bc:9f:20:cb:58:be:66:3f:45:1f:37:
                    61:63:e7:ab:d7:81:ef:b4:14:7c:0f:56:bc:a1:f9:
                    b9:8d:46:46:96:a9:0a:b6:42:28:70:e0:20:71:ef:
                    0c:ca:69
                Exponent: 65537 (0x10001)
        X509v3 extensions:
            X509v3 Basic Constraints: 
                CA:FALSE
            X509v3 Key Usage: 
                Digital Signature, Non Repudiation, Key Encipherment
            Authority Information Access: 
                OCSP - URI:http://127.0.0.1:8888

            TLS Feature: 
                status_request
            X509v3 Subject Alternative Name: 
                DNS:localhost, DNS:client.localhost
    Signature Algorithm: sha256WithRSAEncryption
         0c:71:0f:85:e8:22:48:59:e1:29:52:e2:06:f6:87:94:38:df:
         96:5e:46:25:2a:a1:37:cd:8c:62:79:a5:a5:db:6f:4a:a8:7f:
         e4:f9:7f:e4:80:d3:2c:8a:86:8d:2c:97:6b:d2:b5:21:75:a1:
         1d:de:69:7a:e7:cb:2c:14:cf:ba:e7:e7:01:b6:f4:52:f7:d7:
         ae:85:fa:66:b2:25:df:6a:ef:98:30:3c:fc:30:4b:62:30:a9:
         37:b6:45:9e:5d:b7:b0:45:b2:88:e3:2a:c0:91:eb:2d:35:1f:
         d6:80:45:6f:88:1b:63:13:b4:85:59:69:67:a3:5d:18:da:a3:
         ec:65:30:6e:3a:a7:76:c6:e5:a3:0d:ea:53:6d:e6:1d:99:d2:
         d1:26:0f:a5:b3:5c:e4:a6:96:62:51:f6:67:70:c1:9c:c5:09:
         e9:e1:e0:0c:b4:ed:be:9b:3b:4e:8b:c9:65:55:09:28:87:50:
         29:e6:28:66:2c:9e:66:cf:d0:c4:47:85:b0:00:51:1b:8b:4f:
         56:b5:69:f3:8c:30:13:e8:13:d3:d1:3a:15:2e:36:16:cd:4c:
         40:4c:16:99:a2:f6:96:f1:b7:4a:05:ff:54:37:05:06:9b:06:
         50:50:66:ae:b4:b1:81:17:c6:54:84:d4:d3:88:1c:4a:99:4d:
         10:ff:38:c7:8b:7f:e8:5e:d0:5d:d3:4c:3e:a6:7e:13:cf:87:
         49:d0:fa:50:8a:10:5b:c9:89:50:3f:d8:ca:8f:11:5f:f6:62:
         03:7d:06:2a:59:b2:f7:0f:b6:5d:40:5e:5e:67:f8:68:45:f2:
         d4:d8:67:b1:6d:3d:06:89:ac:c8:45:47:97:77:2f:9d:95:d7:
         e2:c3:61:ad:07:df:b9:fd:3d:b3:f1:d1:19:88:07:03:c6:7d:
         37:f0:34:18:1c:f5:85:c3:d4:03:70:19:c3:8a:bd:76:d9:7e:
         e4:49:f7:62:b7:f3:81:b4:c9:a3:e6:28:e6:7c:43:d8:7d:30:
         37:1d:1b:15:72:52:ae:6c:94:6e:2d:83:74:49:91:59:e1:aa:
         04:96:68:29:a1:ca:8b:23:c9:7d:93:1a:5b:d7:bb:4a:32:98:
         13:c9:64:5a:cc:3d:ca:dc:66:fe:11:2c:b4:98:32:1f:45:f4:
         79:76:b7:f0:60:4d:fa:ae:b3:b9:37:00:29:c4:8f:51:51:32:
         94:6a:6c:fc:b7:37:4d:46:40:9c:67:92:4b:63:dc:84:bd:6d:
         17:e5:ca:ae:b9:cb:6f:20:ab:e3:e5:12:5f:0a:2c:91:a6:43:
         b5:2b:c1:a8:d1:41:42:a8:23:e6:57:d4:46:e4:84:1a:58:11:
         b9:10:f4:65:19:dd:57:bf
-----BEGIN CERTIFICATE-----
MIIF8TCCA9mgAwIBAgIBAjANBgkqhkiG9w0BAQsFADBxMQswCQYDVQQGEwJVUzET
MBEGA1UECAwKQ2FsaWZvcm5pYTEWMBQGA1UEBwwNU2FuIEZyYW5jaXNjbzETMBEG
A1UECgwKRXhhbXBsZSBDQTELMAkGA1UECwwCSVQxEzARBgNVBAMMCmNhLmV4YW1w
bGUwHhcNMjEwNDI5MjIyNzA2WhcNMjEwNzI4MjIyNzA2WjB7MQswCQYDVQQGEwJV
UzETMBEGA1UECAwKQ2FsaWZvcm5pYTEWMBQGA1UEBwwNU2FuIEZyYW5jaXNjbzEc
MBoGA1UECgwTRXhhbXBsZSBXaWRnZXRzIEx0ZDELMAkGA1UECwwCSVQxFDASBgNV
BAMMC05BVFMgQ2xpZW50MIICIjANBgkqhkiG9w0BAQEFAAOCAg8AMIICCgKCAgEA
pkjF4NB00L3TIm+lGSCconvYzXppGl+PYbajWZKQpjIqZjH/pRBprmu3X9nxAPRv
r4/0MSQzu6ftSspDw9lpJMAEhVPf6WOTgmUzkMQ6P+5882dxlyGslwzbs6yJb+73
0suqkleZPfBvhKn3+lK0U0bfjZVqHBgw89+iRrXb//XOHFK4BQ0i9UAYHVvHmH3r
WNp0uAUFizqqX42Y3H5b/Ou5RAqT/7X/MYsszc0pN1hPv86sD7O8xIlxtGGn+AC9
whD4lzvs57EASiVo+C4AFXS7fA3rxS6H8nWWB8Qi+qOnnvGJ49BUrsGg7R+m7fzI
NgiXu3/EJkp9oheGhmsYTEi/7BLHmBkJYY4rzS/KrqMhisjk6zb+52ky4CgxD7Gp
7NLOh7xcmbjsGdcDUzgalUYLKz5u/khwELm2zY/w44pBzsublhXGbAm9nu+fUDvq
eC9Apg0d+ZjFkO0urEdEMiLXLd5tMQfA75TVt00NigeGAhZcV8XSztNXRWYPu7Xw
ieZUxicB+rRBhZLtvmhZspHtfEloBNzy2nAFbC1geQx/K3AfUAzmmV11GtmwKqLV
RGmdmuDnxBA2T+AEqN6LtRKb1D8zTF3LDdweRLWUE5t6TGmSvJ8gy1i+Zj9FHzdh
Y+er14HvtBR8D1a8ofm5jUZGlqkKtkIocOAgce8MymkCAwEAAaOBiTCBhjAJBgNV
HRMEAjAAMAsGA1UdDwQEAwIF4DAxBggrBgEFBQcBAQQlMCMwIQYIKwYBBQUHMAGG
FWh0dHA6Ly8xMjcuMC4wLjE6ODg4ODARBggrBgEFBQcBGAQFMAMCAQUwJgYDVR0R
BB8wHYIJbG9jYWxob3N0ghBjbGllbnQubG9jYWxob3N0MA0GCSqGSIb3DQEBCwUA
A4ICAQAMcQ+F6CJIWeEpUuIG9oeUON+WXkYlKqE3zYxieaWl229KqH/k+X/kgNMs
ioaNLJdr0rUhdaEd3ml658ssFM+65+cBtvRS99euhfpmsiXfau+YMDz8MEtiMKk3
tkWeXbewRbKI4yrAkestNR/WgEVviBtjE7SFWWlno10Y2qPsZTBuOqd2xuWjDepT
beYdmdLRJg+ls1zkppZiUfZncMGcxQnp4eAMtO2+mztOi8llVQkoh1Ap5ihmLJ5m
z9DER4WwAFEbi09WtWnzjDAT6BPT0ToVLjYWzUxATBaZovaW8bdKBf9UNwUGmwZQ
UGautLGBF8ZUhNTTiBxKmU0Q/zjHi3/oXtBd00w+pn4Tz4dJ0PpQihBbyYlQP9jK
jxFf9mIDfQYqWbL3D7ZdQF5eZ/hoRfLU2GexbT0GiazIRUeXdy+dldfiw2GtB9+5
/T2z8dEZiAcDxn038DQYHPWFw9QDcBnDir122X7kSfdit/OBtMmj5ijmfEPYfTA3
HRsVclKubJRuLYN0SZFZ4aoElmgpocqLI8l9kxpb17tKMpgTyWRazD3K3Gb+ESy0
mDIfRfR5drfwYE36rrO5NwApxI9RUTKUamz8tzdNRkCcZ5JLY9yEvW0X5cquuctv
IKvj5RJfCiyRpkO1K8Go0UFCqCPmV9RG5IQaWBG5EPRlGd1Xvw==
-----END CERTIFICATE-----
