Certificate:
    Data:
        Version: 3 (0x2)
        Serial Number: 1 (0x1)
        Signature Algorithm: sha256WithRSAEncryption
        Issuer: C=US, ST=California, L=San Francisco, O=Example CA, OU=IT, CN=ca.example
        Validity
            Not Before: Apr 29 22:27:06 2021 GMT
            Not After : Jul 28 22:27:06 2021 GMT
        Subject: C=US, ST=California, L=San Francisco, O=Example Widgets Ltd, OU=IT, CN=NATS Server
        Subject Public Key Info:
            Public Key Algorithm: rsaEncryption
                RSA Public-Key: (4096 bit)
                Modulus:
                    00:b2:95:25:59:11:6a:42:42:f0:31:e7:49:f7:a0:
                    8f:fc:2f:33:b6:43:4d:3b:98:d6:c3:06:a9:b0:dc:
                    a9:c0:ee:77:e2:27:8c:8a:cd:be:0d:4d:45:64:d4:
                    be:17:9e:a9:c0:5f:b2:21:42:5c:2c:a0:09:32:2a:
                    01:75:1d:e7:05:62:33:31:9d:96:fe:fa:44:c3:0a:
                    08:50:80:dc:0e:26:dd:c5:c6:5a:c6:66:c7:f6:4c:
                    db:2e:12:36:a7:a0:1e:63:ba:66:92:e5:d6:af:c0:
                    fb:da:2c:01:fe:6b:91:1e:1d:2d:e7:19:27:56:69:
                    3e:90:90:ca:11:6b:9a:e3:22:76:5e:42:d5:63:2b:
                    3f:1c:77:f2:89:a9:d4:6a:a8:34:ec:6a:52:74:1e:
                    0e:a8:c7:bd:98:b0:a5:f7:11:90:7f:37:aa:05:d8:
                    07:6d:55:ff:1f:3a:71:54:a2:76:1d:a5:59:93:92:
                    b8:77:b9:57:33:fc:61:35:64:76:96:b5:3f:44:88:
                    b2:05:d6:b9:e7:71:66:b6:a5:ce:05:0a:df:9d:b1:
                    b2:8a:24:ac:7a:62:8c:39:18:e7:ec:6d:e8:62:37:
                    4e:2a:78:83:3c:6f:25:48:ef:e5:13:7e:b8:89:9f:
                    39:57:95:67:99:c6:96:db:52:24:a6:15:18:11:b4:
                    01:a0:e0:35:8d:d7:95:3b:ba:35:af:33:6d:bd:61:
                    6c:3e:5d:cb:f6:39:e4:f6:35:28:bb:7a:07:70:25:
                    14:28:65:0b:10:59:d8:c4:5e:66:df:b0:fb:fe:87:
                    d2:7e:e7:cf:05:06:a5:da:c1:07:37:2a:ce:64:4b:
                    af:2d:e5:2c:3f:41:1d:08:bd:49:b7:3b:22:67:00:
                    a1:45:51:92:70:6e:b6:76:5f:4b:b8:40:bd:e9:4a:
                    75:33:59:36:3f:9e:3a:69:66:2f:9c:3e:37:8c:62:
                    f4:41:bc:6f:c7:74:80:52:a1:a9:c5:63:3d:50:2c:
                    27:54:e9:57:f1:58:41:91:45:26:95:3f:df:3a:92:
                    12:db:21:e4:08:61:b2:f6:d1:b1:1a:e5:b1:cf:7c:
                    e9:7d:c7:27:a2:0f:c6:11:a4:8f:c2:6f:6a:51:fe:
                    76:be:75:29:69:f2:dc:a5:28:d6:e7:b3:ca:ed:f2:
                    7f:59:cb:5f:75:d0:f6:6a:71:50:81:e2:9f:5b:e7:
                    88:98:cd:15:e0:d1:61:53:65:04:08:e9:ab:cb:14:
                    5c:6f:34:9b:ca:30:99:e0:bf:0e:de:4d:9a:bf:8f:
                    c7:dd:e1:6c:7d:24:b8:89:53:70:4a:16:d0:15:bc:
                    6d:40:63:3e:df:90:1b:a2:2b:bb:78:e6:47:9e:08:
                    e3:ea:79
                Exponent: 65537 (0x10001)
        X509v3 extensions:
            X509v3 Basic Constraints: 
                CA:FALSE
            X509v3 Key Usage: 
                Digital Signature, Non Repudiation, Key Encipherment
            Authority Information Access: 
                OCSP - URI:http://127.0.0.1:8888

            TLS Feature: 
                status_request
            X509v3 Subject Alternative Name: 
                DNS:localhost, DNS:server.localhost
    Signature Algorithm: sha256WithRSAEncryption
         3b:ea:73:11:c9:25:93:5e:00:56:bd:a6:ea:0d:9f:b6:77:10:
         a6:8a:2a:f0:b9:bc:60:99:d9:aa:7d:c2:a0:cc:37:9e:8a:65:
         6c:b1:24:9e:75:e1:53:e3:65:12:fa:ca:d4:ad:c6:07:60:a3:
         9b:f4:c1:64:0c:04:33:28:67:1f:55:3d:1b:eb:05:b5:90:b0:
         5d:36:ea:47:7c:ab:8c:75:36:f4:76:89:c6:8f:e3:3e:f0:d3:
         82:d0:55:f5:76:4e:88:74:bc:29:d9:c8:ee:8e:42:56:f1:72:
         39:1d:5f:b1:ef:00:d4:86:a0:0f:82:39:98:6a:fb:fc:44:e2:
         e3:e5:0a:5a:ed:36:f9:32:d6:e8:93:a8:a0:e1:7a:ff:4f:23:
         e6:d1:70:af:6a:95:0f:98:94:d6:f4:bd:e1:aa:89:6c:68:04:
         c9:ea:eb:39:64:d7:4a:8d:d1:3f:68:36:f6:45:55:d6:0f:6e:
         3c:f0:19:55:fb:73:01:64:7d:f3:92:8f:4a:29:08:70:f3:f7:
         75:c8:b8:75:1d:55:7c:e8:36:2d:47:96:52:f3:23:c2:03:10:
         9b:4f:eb:df:53:11:15:d7:5c:a9:32:59:45:a8:44:23:a8:63:
         db:a4:4a:14:e1:ea:56:00:b6:e7:9b:7f:29:5b:54:6b:84:79:
         80:05:1a:e3:1a:b5:a0:0d:bc:e4:15:aa:f9:98:05:05:ac:10:
         a0:37:13:a4:0f:46:7e:2f:d1:b4:12:a8:e5:18:5f:13:8f:09:
         06:2d:20:1b:f1:74:5e:2f:c0:a0:80:97:da:7b:94:29:b9:72:
         be:13:47:91:d6:c2:3a:51:25:e1:e1:a1:da:83:6c:8b:0a:87:
         b8:fb:a4:91:e2:80:62:cf:c7:b7:ad:69:40:bd:de:df:b0:73:
         de:eb:82:69:a9:16:04:75:2f:76:8c:49:ea:d1:e0:61:e8:91:
         8e:a4:fd:5e:90:7c:2f:46:99:ed:bc:2e:61:a8:ba:9f:ff:52:
         c0:3d:11:2c:cd:96:e3:f7:d1:9a:52:b7:8f:56:cd:23:6e:a5:
         31:f4:32:f3:dd:26:41:1f:bb:94:93:54:c0:7d:c1:4b:fc:0a:
         5b:5a:53:83:cc:da:9a:92:48:3b:ab:ff:bb:ad:9b:af:8b:cd:
         84:20:b9:57:75:a0:19:0a:07:7b:8c:7b:39:34:db:d8:dc:15:
         22:08:69:20:2b:a8:29:e2:9f:f3:f8:e1:c9:87:a8:02:d2:20:
         a4:65:26:91:6f:e9:e5:37:9c:c8:f8:61:47:12:52:8b:0d:0d:
         c1:67:57:ba:eb:f3:d1:09:58:af:38:c5:69:fe:0d:06:2b:3c:
         73:31:35:a7:05:2e:c2:7e
-----BEGIN CERTIFICATE-----
MIIF8TCCA9mgAwIBAgIBATANBgkqhkiG9w0BAQsFADBxMQswCQYDVQQGEwJVUzET
MBEGA1UECAwKQ2FsaWZvcm5pYTEWMBQGA1UEBwwNU2FuIEZyYW5jaXNjbzETMBEG
A1UECgwKRXhhbXBsZSBDQTELMAkGA1UECwwCSVQxEzARBgNVBAMMCmNhLmV4YW1w
bGUwHhcNMjEwNDI5MjIyNzA2WhcNMjEwNzI4MjIyNzA2WjB7MQswCQYDVQQGEwJV
UzETMBEGA1UECAwKQ2FsaWZvcm5pYTEWMBQGA1UEBwwNU2FuIEZyYW5jaXNjbzEc
MBoGA1UECgwTRXhhbXBsZSBXaWRnZXRzIEx0ZDELMAkGA1UECwwCSVQxFDASBgNV
BAMMC05BVFMgU2VydmVyMIICIjANBgkqhkiG9w0BAQEFAAOCAg8AMIICCgKCAgEA
spUlWRFqQkLwMedJ96CP/C8ztkNNO5jWwwapsNypwO534ieMis2+DU1FZNS+F56p
wF+yIUJcLKAJMioBdR3nBWIzMZ2W/vpEwwoIUIDcDibdxcZaxmbH9kzbLhI2p6Ae
Y7pmkuXWr8D72iwB/muRHh0t5xknVmk+kJDKEWua4yJ2XkLVYys/HHfyianUaqg0
7GpSdB4OqMe9mLCl9xGQfzeqBdgHbVX/HzpxVKJ2HaVZk5K4d7lXM/xhNWR2lrU/
RIiyBda553FmtqXOBQrfnbGyiiSsemKMORjn7G3oYjdOKniDPG8lSO/lE364iZ85
V5VnmcaW21IkphUYEbQBoOA1jdeVO7o1rzNtvWFsPl3L9jnk9jUou3oHcCUUKGUL
EFnYxF5m37D7/ofSfufPBQal2sEHNyrOZEuvLeUsP0EdCL1JtzsiZwChRVGScG62
dl9LuEC96Up1M1k2P546aWYvnD43jGL0Qbxvx3SAUqGpxWM9UCwnVOlX8VhBkUUm
lT/fOpIS2yHkCGGy9tGxGuWxz3zpfccnog/GEaSPwm9qUf52vnUpafLcpSjW57PK
7fJ/WctfddD2anFQgeKfW+eImM0V4NFhU2UECOmryxRcbzSbyjCZ4L8O3k2av4/H
3eFsfSS4iVNwShbQFbxtQGM+35Aboiu7eOZHngjj6nkCAwEAAaOBiTCBhjAJBgNV
HRMEAjAAMAsGA1UdDwQEAwIF4DAxBggrBgEFBQcBAQQlMCMwIQYIKwYBBQUHMAGG
FWh0dHA6Ly8xMjcuMC4wLjE6ODg4ODARBggrBgEFBQcBGAQFMAMCAQUwJgYDVR0R
BB8wHYIJbG9jYWxob3N0ghBzZXJ2ZXIubG9jYWxob3N0MA0GCSqGSIb3DQEBCwUA
A4ICAQA76nMRySWTXgBWvabqDZ+2dxCmiirwubxgmdmqfcKgzDeeimVssSSedeFT
42US+srUrcYHYKOb9MFkDAQzKGcfVT0b6wW1kLBdNupHfKuMdTb0donGj+M+8NOC
0FX1dk6IdLwp2cjujkJW8XI5HV+x7wDUhqAPgjmYavv8ROLj5Qpa7Tb5Mtbok6ig
4Xr/TyPm0XCvapUPmJTW9L3hqolsaATJ6us5ZNdKjdE/aDb2RVXWD2488BlV+3MB
ZH3zko9KKQhw8/d1yLh1HVV86DYtR5ZS8yPCAxCbT+vfUxEV11ypMllFqEQjqGPb
pEoU4epWALbnm38pW1RrhHmABRrjGrWgDbzkFar5mAUFrBCgNxOkD0Z+L9G0Eqjl
GF8TjwkGLSAb8XReL8CggJfae5QpuXK+E0eR1sI6USXh4aHag2yLCoe4+6SR4oBi
z8e3rWlAvd7fsHPe64JpqRYEdS92jEnq0eBh6JGOpP1ekHwvRpntvC5hqLqf/1LA
PREszZbj99GaUrePVs0jbqUx9DLz3SZBH7uUk1TAfcFL/ApbWlODzNqakkg7q/+7
rZuvi82EILlXdaAZCgd7jHs5NNvY3BUiCGkgK6gp4p/z+OHJh6gC0iCkZSaRb+nl
N5zI+GFHElKLDQ3BZ1e66/PRCVivOMVp/g0GKzxzMTWnBS7Cfg==
-----END CERTIFICATE-----
